; ModuleID = '43/1379.c'
source_filename = "43/1379.c"
target datalayout = "e-m:e-p270:32:32-p271:32:32-p272:64:64-i64:64-f80:128-n8:16:32:64-S128"
target triple = "x86_64-pc-linux-gnu"

@.str = private unnamed_addr constant [3 x i8] c"%d\00", align 1
@.str.1 = private unnamed_addr constant [7 x i8] c"%d %d\0A\00", align 1

; Function Attrs: noinline nounwind uwtable
define dso_local i32 @f(i32 %0) #0 {
  %2 = alloca i32, align 4
  %3 = alloca i32, align 4
  %4 = alloca i32, align 4
  %5 = alloca i32, align 4
  %6 = alloca i32, align 4
  store i32 %0, i32* %3, align 4
  store i32 0, i32* %4, align 4
  store i32 2, i32* %6, align 4
  br label %7

7:                                                ; preds = %21, %1
  %8 = load i32, i32* %6, align 4
  %9 = load i32, i32* %3, align 4
  %10 = icmp slt i32 %8, %9
  br i1 %10, label %11, label %24

11:                                               ; preds = %7
  %12 = load i32, i32* %3, align 4
  %13 = load i32, i32* %6, align 4
  %14 = srem i32 %12, %13
  store i32 %14, i32* %5, align 4
  %15 = load i32, i32* %5, align 4
  %16 = icmp eq i32 %15, 0
  br i1 %16, label %17, label %20

17:                                               ; preds = %11
  %18 = load i32, i32* %4, align 4
  %19 = add nsw i32 %18, 1
  store i32 %19, i32* %4, align 4
  br label %20

20:                                               ; preds = %17, %11
  br label %21

21:                                               ; preds = %20
  %22 = load i32, i32* %6, align 4
  %23 = add nsw i32 %22, 1
  store i32 %23, i32* %6, align 4
  br label %7

24:                                               ; preds = %7
  %25 = load i32, i32* %4, align 4
  %26 = icmp eq i32 %25, 0
  br i1 %26, label %27, label %28

27:                                               ; preds = %24
  store i32 1, i32* %2, align 4
  br label %29

28:                                               ; preds = %24
  store i32 0, i32* %2, align 4
  br label %29

29:                                               ; preds = %28, %27
  %30 = load i32, i32* %2, align 4
  ret i32 %30
}

; Function Attrs: noinline nounwind uwtable
define dso_local i32 @main() #0 {
  %1 = alloca i32, align 4
  %2 = alloca i32, align 4
  %3 = alloca i32, align 4
  %4 = alloca i32, align 4
  store i32 0, i32* %1, align 4
  %5 = call i32 (i8*, ...) @__isoc99_scanf(i8* getelementptr inbounds ([3 x i8], [3 x i8]* @.str, i64 0, i64 0), i32* %2)
  store i32 2, i32* %4, align 4
  br label %6

6:                                                ; preds = %27, %0
  %7 = load i32, i32* %4, align 4
  %8 = load i32, i32* %2, align 4
  %9 = sdiv i32 %8, 2
  %10 = icmp sle i32 %7, %9
  br i1 %10, label %11, label %30

11:                                               ; preds = %6
  %12 = load i32, i32* %2, align 4
  %13 = load i32, i32* %4, align 4
  %14 = sub nsw i32 %12, %13
  store i32 %14, i32* %3, align 4
  %15 = load i32, i32* %3, align 4
  %16 = call i32 @f(i32 %15)
  %17 = icmp eq i32 %16, 1
  br i1 %17, label %18, label %26

18:                                               ; preds = %11
  %19 = load i32, i32* %4, align 4
  %20 = call i32 @f(i32 %19)
  %21 = icmp eq i32 %20, 1
  br i1 %21, label %22, label %26

22:                                               ; preds = %18
  %23 = load i32, i32* %4, align 4
  %24 = load i32, i32* %3, align 4
  %25 = call i32 (i8*, ...) @printf(i8* getelementptr inbounds ([7 x i8], [7 x i8]* @.str.1, i64 0, i64 0), i32 %23, i32 %24)
  br label %26

26:                                               ; preds = %22, %18, %11
  br label %27

27:                                               ; preds = %26
  %28 = load i32, i32* %4, align 4
  %29 = add nsw i32 %28, 1
  store i32 %29, i32* %4, align 4
  br label %6

30:                                               ; preds = %6
  %31 = call i32 @getchar()
  %32 = call i32 @getchar()
  %33 = load i32, i32* %1, align 4
  ret i32 %33
}

declare dso_local i32 @__isoc99_scanf(i8*, ...) #1

declare dso_local i32 @printf(i8*, ...) #1

declare dso_local i32 @getchar() #1


!llvm.module.flags = !{!0}
!llvm.ident = !{!1}

!0 = !{i32 1, !"wchar_size", i32 4}
!1 = !{!"clang version 10.0.0-4ubuntu1 "}
